; ModuleID = '32/1561.c'
source_filename = "32/1561.c"
target datalayout = "e-m:e-p270:32:32-p271:32:32-p272:64:64-i64:64-f80:128-n8:16:32:64-S128"
target triple = "x86_64-pc-linux-gnu"

@.str = private unnamed_addr constant [3 x i8] c"%d\00", align 1
@.str.1 = private unnamed_addr constant [5 x i8] c"%s%s\00", align 1
@.str.2 = private unnamed_addr constant [4 x i8] c"%s\0A\00", align 1

; Function Attrs: noinline nounwind uwtable
define dso_local void @main() #0 {
  %1 = alloca i32, align 4
  %2 = alloca i32, align 4
  %3 = alloca i32, align 4
  %4 = alloca i32, align 4
  %5 = alloca i32, align 4
  %6 = alloca [101 x i8], align 16
  %7 = alloca [101 x i8], align 16
  %8 = alloca [20 x [101 x i8]], align 16
  %9 = alloca i8*, align 8
  %10 = alloca [5 x i8], align 1
  %11 = call i32 (i8*, ...) @__isoc99_scanf(i8* getelementptr inbounds ([3 x i8], [3 x i8]* @.str, i64 0, i64 0), i32* %3)
  store i32 0, i32* %1, align 4
  br label %12

12:                                               ; preds = %187, %0
  %13 = load i32, i32* %1, align 4
  %14 = load i32, i32* %3, align 4
  %15 = icmp slt i32 %13, %14
  br i1 %15, label %16, label %190

16:                                               ; preds = %12
  %17 = getelementptr inbounds [101 x i8], [101 x i8]* %6, i64 0, i64 0
  %18 = getelementptr inbounds [101 x i8], [101 x i8]* %7, i64 0, i64 0
  %19 = call i32 (i8*, ...) @__isoc99_scanf(i8* getelementptr inbounds ([5 x i8], [5 x i8]* @.str.1, i64 0, i64 0), i8* %17, i8* %18)
  %20 = getelementptr inbounds [5 x i8], [5 x i8]* %10, i64 0, i64 0
  %21 = call i32 (i8*, ...) bitcast (i32 (...)* @gets to i32 (i8*, ...)*)(i8* %20)
  store i32 0, i32* %2, align 4
  br label %22

22:                                               ; preds = %183, %16
  %23 = load i32, i32* %2, align 4
  %24 = getelementptr inbounds [101 x i8], [101 x i8]* %6, i64 0, i64 0
  %25 = call i64 @strlen(i8* %24) #3
  %26 = trunc i64 %25 to i32
  store i32 %26, i32* %4, align 4
  %27 = icmp slt i32 %23, %26
  br i1 %27, label %28, label %186

28:                                               ; preds = %22
  %29 = load i32, i32* %2, align 4
  %30 = getelementptr inbounds [101 x i8], [101 x i8]* %7, i64 0, i64 0
  %31 = call i64 @strlen(i8* %30) #3
  %32 = trunc i64 %31 to i32
  store i32 %32, i32* %5, align 4
  %33 = icmp slt i32 %29, %32
  br i1 %33, label %34, label %120

34:                                               ; preds = %28
  %35 = load i32, i32* %4, align 4
  %36 = sub nsw i32 %35, 1
  %37 = load i32, i32* %2, align 4
  %38 = sub nsw i32 %36, %37
  %39 = sext i32 %38 to i64
  %40 = getelementptr inbounds [101 x i8], [101 x i8]* %6, i64 0, i64 %39
  %41 = load i8, i8* %40, align 1
  %42 = sext i8 %41 to i32
  %43 = load i32, i32* %5, align 4
  %44 = load i32, i32* %2, align 4
  %45 = sub nsw i32 %43, %44
  %46 = sub nsw i32 %45, 1
  %47 = sext i32 %46 to i64
  %48 = getelementptr inbounds [101 x i8], [101 x i8]* %7, i64 0, i64 %47
  %49 = load i8, i8* %48, align 1
  %50 = sext i8 %49 to i32
  %51 = icmp slt i32 %42, %50
  br i1 %51, label %52, label %90

52:                                               ; preds = %34
  %53 = load i32, i32* %4, align 4
  %54 = sub nsw i32 %53, 1
  %55 = load i32, i32* %2, align 4
  %56 = sub nsw i32 %54, %55
  %57 = sext i32 %56 to i64
  %58 = getelementptr inbounds [101 x i8], [101 x i8]* %6, i64 0, i64 %57
  %59 = load i8, i8* %58, align 1
  %60 = sext i8 %59 to i32
  %61 = add nsw i32 10, %60
  %62 = load i32, i32* %5, align 4
  %63 = load i32, i32* %2, align 4
  %64 = sub nsw i32 %62, %63
  %65 = sub nsw i32 %64, 1
  %66 = sext i32 %65 to i64
  %67 = getelementptr inbounds [101 x i8], [101 x i8]* %7, i64 0, i64 %66
  %68 = load i8, i8* %67, align 1
  %69 = sext i8 %68 to i32
  %70 = sub nsw i32 %61, %69
  %71 = add nsw i32 %70, 48
  %72 = trunc i32 %71 to i8
  %73 = load i32, i32* %1, align 4
  %74 = sext i32 %73 to i64
  %75 = getelementptr inbounds [20 x [101 x i8]], [20 x [101 x i8]]* %8, i64 0, i64 %74
  %76 = load i32, i32* %4, align 4
  %77 = sub nsw i32 %76, 1
  %78 = load i32, i32* %2, align 4
  %79 = sub nsw i32 %77, %78
  %80 = sext i32 %79 to i64
  %81 = getelementptr inbounds [101 x i8], [101 x i8]* %75, i64 0, i64 %80
  store i8 %72, i8* %81, align 1
  %82 = load i32, i32* %4, align 4
  %83 = sub nsw i32 %82, 2
  %84 = load i32, i32* %2, align 4
  %85 = sub nsw i32 %83, %84
  %86 = sext i32 %85 to i64
  %87 = getelementptr inbounds [101 x i8], [101 x i8]* %6, i64 0, i64 %86
  %88 = load i8, i8* %87, align 1
  %89 = add i8 %88, -1
  store i8 %89, i8* %87, align 1
  br label %119

90:                                               ; preds = %34
  %91 = load i32, i32* %4, align 4
  %92 = sub nsw i32 %91, 1
  %93 = load i32, i32* %2, align 4
  %94 = sub nsw i32 %92, %93
  %95 = sext i32 %94 to i64
  %96 = getelementptr inbounds [101 x i8], [101 x i8]* %6, i64 0, i64 %95
  %97 = load i8, i8* %96, align 1
  %98 = sext i8 %97 to i32
  %99 = load i32, i32* %5, align 4
  %100 = load i32, i32* %2, align 4
  %101 = sub nsw i32 %99, %100
  %102 = sub nsw i32 %101, 1
  %103 = sext i32 %102 to i64
  %104 = getelementptr inbounds [101 x i8], [101 x i8]* %7, i64 0, i64 %103
  %105 = load i8, i8* %104, align 1
  %106 = sext i8 %105 to i32
  %107 = sub nsw i32 %98, %106
  %108 = add nsw i32 %107, 48
  %109 = trunc i32 %108 to i8
  %110 = load i32, i32* %1, align 4
  %111 = sext i32 %110 to i64
  %112 = getelementptr inbounds [20 x [101 x i8]], [20 x [101 x i8]]* %8, i64 0, i64 %111
  %113 = load i32, i32* %4, align 4
  %114 = load i32, i32* %2, align 4
  %115 = sub nsw i32 %113, %114
  %116 = sub nsw i32 %115, 1
  %117 = sext i32 %116 to i64
  %118 = getelementptr inbounds [101 x i8], [101 x i8]* %112, i64 0, i64 %117
  store i8 %109, i8* %118, align 1
  br label %119

119:                                              ; preds = %90, %52
  br label %176

120:                                              ; preds = %28
  %121 = load i32, i32* %4, align 4
  %122 = sub nsw i32 %121, 1
  %123 = load i32, i32* %2, align 4
  %124 = sub nsw i32 %122, %123
  %125 = sext i32 %124 to i64
  %126 = getelementptr inbounds [101 x i8], [101 x i8]* %6, i64 0, i64 %125
  %127 = load i8, i8* %126, align 1
  %128 = sext i8 %127 to i32
  %129 = icmp slt i32 %128, 48
  br i1 %129, label %130, label %158

130:                                              ; preds = %120
  %131 = load i32, i32* %4, align 4
  %132 = sub nsw i32 %131, 1
  %133 = load i32, i32* %2, align 4
  %134 = sub nsw i32 %132, %133
  %135 = sext i32 %134 to i64
  %136 = getelementptr inbounds [101 x i8], [101 x i8]* %6, i64 0, i64 %135
  %137 = load i8, i8* %136, align 1
  %138 = sext i8 %137 to i32
  %139 = add nsw i32 10, %138
  %140 = trunc i32 %139 to i8
  %141 = load i32, i32* %1, align 4
  %142 = sext i32 %141 to i64
  %143 = getelementptr inbounds [20 x [101 x i8]], [20 x [101 x i8]]* %8, i64 0, i64 %142
  %144 = load i32, i32* %4, align 4
  %145 = load i32, i32* %2, align 4
  %146 = sub nsw i32 %144, %145
  %147 = sub nsw i32 %146, 1
  %148 = sext i32 %147 to i64
  %149 = getelementptr inbounds [101 x i8], [101 x i8]* %143, i64 0, i64 %148
  store i8 %140, i8* %149, align 1
  %150 = load i32, i32* %4, align 4
  %151 = load i32, i32* %2, align 4
  %152 = sub nsw i32 %150, %151
  %153 = sub nsw i32 %152, 2
  %154 = sext i32 %153 to i64
  %155 = getelementptr inbounds [101 x i8], [101 x i8]* %6, i64 0, i64 %154
  %156 = load i8, i8* %155, align 1
  %157 = add i8 %156, -1
  store i8 %157, i8* %155, align 1
  br label %175

158:                                              ; preds = %120
  %159 = load i32, i32* %4, align 4
  %160 = sub nsw i32 %159, 1
  %161 = load i32, i32* %2, align 4
  %162 = sub nsw i32 %160, %161
  %163 = sext i32 %162 to i64
  %164 = getelementptr inbounds [101 x i8], [101 x i8]* %6, i64 0, i64 %163
  %165 = load i8, i8* %164, align 1
  %166 = load i32, i32* %1, align 4
  %167 = sext i32 %166 to i64
  %168 = getelementptr inbounds [20 x [101 x i8]], [20 x [101 x i8]]* %8, i64 0, i64 %167
  %169 = load i32, i32* %4, align 4
  %170 = load i32, i32* %2, align 4
  %171 = sub nsw i32 %169, %170
  %172 = sub nsw i32 %171, 1
  %173 = sext i32 %172 to i64
  %174 = getelementptr inbounds [101 x i8], [101 x i8]* %168, i64 0, i64 %173
  store i8 %165, i8* %174, align 1
  br label %175

175:                                              ; preds = %158, %130
  br label %176

176:                                              ; preds = %175, %119
  %177 = load i32, i32* %1, align 4
  %178 = sext i32 %177 to i64
  %179 = getelementptr inbounds [20 x [101 x i8]], [20 x [101 x i8]]* %8, i64 0, i64 %178
  %180 = load i32, i32* %4, align 4
  %181 = sext i32 %180 to i64
  %182 = getelementptr inbounds [101 x i8], [101 x i8]* %179, i64 0, i64 %181
  store i8 0, i8* %182, align 1
  br label %183

183:                                              ; preds = %176
  %184 = load i32, i32* %2, align 4
  %185 = add nsw i32 %184, 1
  store i32 %185, i32* %2, align 4
  br label %22

186:                                              ; preds = %22
  br label %187

187:                                              ; preds = %186
  %188 = load i32, i32* %1, align 4
  %189 = add nsw i32 %188, 1
  store i32 %189, i32* %1, align 4
  br label %12

190:                                              ; preds = %12
  store i32 0, i32* %1, align 4
  br label %191

191:                                              ; preds = %224, %190
  %192 = load i32, i32* %1, align 4
  %193 = load i32, i32* %3, align 4
  %194 = icmp slt i32 %192, %193
  br i1 %194, label %195, label %227

195:                                              ; preds = %191
  store i32 0, i32* %2, align 4
  br label %196

196:                                              ; preds = %218, %195
  %197 = load i32, i32* %2, align 4
  %198 = load i32, i32* %4, align 4
  %199 = icmp slt i32 %197, %198
  br i1 %199, label %200, label %221

200:                                              ; preds = %196
  %201 = load i32, i32* %1, align 4
  %202 = sext i32 %201 to i64
  %203 = getelementptr inbounds [20 x [101 x i8]], [20 x [101 x i8]]* %8, i64 0, i64 %202
  %204 = load i32, i32* %2, align 4
  %205 = sext i32 %204 to i64
  %206 = getelementptr inbounds [101 x i8], [101 x i8]* %203, i64 0, i64 %205
  %207 = load i8, i8* %206, align 1
  %208 = sext i8 %207 to i32
  %209 = icmp ne i32 %208, 48
  br i1 %209, label %210, label %217

210:                                              ; preds = %200
  %211 = load i32, i32* %1, align 4
  %212 = sext i32 %211 to i64
  %213 = getelementptr inbounds [20 x [101 x i8]], [20 x [101 x i8]]* %8, i64 0, i64 %212
  %214 = load i32, i32* %2, align 4
  %215 = sext i32 %214 to i64
  %216 = getelementptr inbounds [101 x i8], [101 x i8]* %213, i64 0, i64 %215
  store i8* %216, i8** %9, align 8
  br label %221

217:                                              ; preds = %200
  br label %218

218:                                              ; preds = %217
  %219 = load i32, i32* %2, align 4
  %220 = add nsw i32 %219, 1
  store i32 %220, i32* %2, align 4
  br label %196

221:                                              ; preds = %210, %196
  %222 = load i8*, i8** %9, align 8
  %223 = call i32 (i8*, ...) @printf(i8* getelementptr inbounds ([4 x i8], [4 x i8]* @.str.2, i64 0, i64 0), i8* %222)
  br label %224

224:                                              ; preds = %221
  %225 = load i32, i32* %1, align 4
  %226 = add nsw i32 %225, 1
  store i32 %226, i32* %1, align 4
  br label %191

227:                                              ; preds = %191
  ret void
}

declare dso_local i32 @__isoc99_scanf(i8*, ...) #1

declare dso_local i32 @gets(...) #1

; Function Attrs: nounwind readonly
declare dso_local i64 @strlen(i8*) #2

declare dso_local i32 @printf(i8*, ...) #1


!llvm.module.flags = !{!0}
!llvm.ident = !{!1}

!0 = !{i32 1, !"wchar_size", i32 4}
!1 = !{!"clang version 10.0.0-4ubuntu1 "}
